target datalayout = "e-m:e-p270:32:32-p271:32:32-p272:64:64-i64:64-i128:128-f80:128-n8:16:32:64-S128"
target triple = "x86_64-pc-linux-gnu"

%struct.rb_ractor_local_storage_type = type { ptr, ptr }
%struct.RBasic = type { i64, i64 }

@default_rand_key = internal global ptr null, align 8
@.str.5 = private unnamed_addr constant [5 x i8] c"Base\00", align 1
@.str.6 = private unnamed_addr constant [6 x i8] c"srand\00", align 1
@.str.7 = private unnamed_addr constant [5 x i8] c"rand\00", align 1
@rb_cObject = external global i64, align 8
@.str.8 = private unnamed_addr constant [7 x i8] c"Random\00", align 1
@rb_cRandom = dso_local global i64 0, align 8
@.str.9 = private unnamed_addr constant [11 x i8] c"initialize\00", align 1
@.str.10 = private unnamed_addr constant [6 x i8] c"bytes\00", align 1
@.str.11 = private unnamed_addr constant [5 x i8] c"seed\00", align 1
@.str.12 = private unnamed_addr constant [16 x i8] c"initialize_copy\00", align 1
@.str.13 = private unnamed_addr constant [13 x i8] c"marshal_dump\00", align 1
@.str.14 = private unnamed_addr constant [13 x i8] c"marshal_load\00", align 1
@.str.15 = private unnamed_addr constant [6 x i8] c"state\00", align 1
@.str.16 = private unnamed_addr constant [5 x i8] c"left\00", align 1
@.str.17 = private unnamed_addr constant [3 x i8] c"==\00", align 1
@.str.18 = private unnamed_addr constant [9 x i8] c"new_seed\00", align 1
@.str.19 = private unnamed_addr constant [8 x i8] c"urandom\00", align 1
@.str.20 = private unnamed_addr constant [10 x i8] c"Formatter\00", align 1
@.str.21 = private unnamed_addr constant [14 x i8] c"random_number\00", align 1
@default_rand_key_storage_type = internal constant %struct.rb_ractor_local_storage_type { ptr @default_rand_mark, ptr @ruby_xfree }, align 8
@rb_cFalseClass = external global i64, align 8
@rb_cNilClass = external global i64, align 8
@rb_cTrueClass = external global i64, align 8
@rb_cInteger = external global i64, align 8
@rb_cSymbol = external global i64, align 8
@rb_cFloat = external global i64, align 8

; Function Attrs: inlinehint nounwind sspstrong willreturn memory(none) uwtable
define internal zeroext i1 @RB_IMMEDIATE_P(i64 noundef %0) #8 {
  %2 = alloca i64, align 8
  store i64 %0, ptr %2, align 8, !tbaa !26
  %3 = load i64, ptr %2, align 8, !tbaa !26
  %4 = and i64 %3, 7
  %5 = icmp ne i64 %4, 0
  ret i1 %5
}

; Function Attrs: inlinehint nounwind sspstrong willreturn memory(none) uwtable
define internal zeroext i1 @RB_FLONUM_P(i64 noundef %0) #8 {
  %2 = alloca i64, align 8
  store i64 %0, ptr %2, align 8, !tbaa !26
  %3 = load i64, ptr %2, align 8, !tbaa !26
  %4 = and i64 %3, 3
  %5 = icmp eq i64 %4, 2
  ret i1 %5
}

; Function Attrs: inlinehint nounwind sspstrong willreturn memory(none) uwtable
define internal zeroext i1 @RB_STATIC_SYM_P(i64 noundef %0) #8 {
  %2 = alloca i64, align 8
  %3 = alloca i64, align 8
  store i64 %0, ptr %2, align 8, !tbaa !26
  call void @llvm.lifetime.start.p0(i64 8, ptr %3) #24
  store i64 255, ptr %3, align 8, !tbaa !26
  %4 = load i64, ptr %2, align 8, !tbaa !26
  %5 = and i64 %4, 255
  %6 = icmp eq i64 %5, 12
  call void @llvm.lifetime.end.p0(i64 8, ptr %3) #24
  ret i1 %6
}

; Function Attrs: inlinehint nounwind sspstrong willreturn memory(none) uwtable
define internal zeroext i1 @RB_FIXNUM_P(i64 noundef %0) #8 {
  %2 = alloca i64, align 8
  store i64 %0, ptr %2, align 8, !tbaa !26
  %3 = load i64, ptr %2, align 8, !tbaa !26
  %4 = and i64 %3, 1
  %5 = icmp ne i64 %4, 0
  ret i1 %5
}

; Function Attrs: inlinehint nounwind sspstrong willreturn memory(read) uwtable
define internal i64 @RBASIC_CLASS(i64 noundef %0) #6 {
  %2 = alloca i64, align 8
  store i64 %0, ptr %2, align 8, !tbaa !26
  %3 = load i64, ptr %2, align 8, !tbaa !26
  %4 = inttoptr i64 %3 to ptr
  %5 = getelementptr inbounds nuw %struct.RBasic, ptr %4, i32 0, i32 1
  %6 = load i64, ptr %5, align 8, !tbaa !105
  ret i64 %6
}

; Function Attrs: inlinehint nounwind sspstrong willreturn memory(none) uwtable
define internal zeroext i1 @RB_SPECIAL_CONST_P(i64 noundef %0) #8 {
  %2 = alloca i64, align 8
  store i64 %0, ptr %2, align 8, !tbaa !26
  %3 = load i64, ptr %2, align 8, !tbaa !26
  %4 = icmp eq i64 %3, 0
  br i1 %4, label %8, label %5

5:                                                ; preds = %1
  %6 = load i64, ptr %2, align 8, !tbaa !26
  %7 = call zeroext i1 @RB_IMMEDIATE_P(i64 noundef %6) #28
  br label %8

8:                                                ; preds = %5, %1
  %9 = phi i1 [ true, %1 ], [ %7, %5 ]
  ret i1 %9
}

; Function Attrs: inlinehint nounwind sspstrong willreturn memory(read) uwtable
define internal i64 @rb_class_of(i64 noundef %0) #6 {
  %2 = alloca i64, align 8
  %3 = alloca i64, align 8
  store i64 %0, ptr %3, align 8, !tbaa !26
  %4 = load i64, ptr %3, align 8, !tbaa !26
  %5 = call zeroext i1 @RB_SPECIAL_CONST_P(i64 noundef %4) #28
  br i1 %5, label %9, label %6

6:                                                ; preds = %1
  %7 = load i64, ptr %3, align 8, !tbaa !26
  %8 = call i64 @RBASIC_CLASS(i64 noundef %7) #26
  store i64 %8, ptr %2, align 8
  br label %46

9:                                                ; preds = %1
  %10 = load i64, ptr %3, align 8, !tbaa !26
  %11 = icmp eq i64 %10, 0
  br i1 %11, label %12, label %14

12:                                               ; preds = %9
  %13 = load i64, ptr @rb_cFalseClass, align 8, !tbaa !26
  store i64 %13, ptr %2, align 8
  br label %46

14:                                               ; preds = %9
  %15 = load i64, ptr %3, align 8, !tbaa !26
  %16 = icmp eq i64 %15, 4
  br i1 %16, label %17, label %19

17:                                               ; preds = %14
  %18 = load i64, ptr @rb_cNilClass, align 8, !tbaa !26
  store i64 %18, ptr %2, align 8
  br label %46

19:                                               ; preds = %14
  %20 = load i64, ptr %3, align 8, !tbaa !26
  %21 = icmp eq i64 %20, 20
  br i1 %21, label %22, label %24

22:                                               ; preds = %19
  %23 = load i64, ptr @rb_cTrueClass, align 8, !tbaa !26
  store i64 %23, ptr %2, align 8
  br label %46

24:                                               ; preds = %19
  %25 = load i64, ptr %3, align 8, !tbaa !26
  %26 = call zeroext i1 @RB_FIXNUM_P(i64 noundef %25) #28
  br i1 %26, label %27, label %29

27:                                               ; preds = %24
  %28 = load i64, ptr @rb_cInteger, align 8, !tbaa !26
  store i64 %28, ptr %2, align 8
  br label %46

29:                                               ; preds = %24
  %30 = load i64, ptr %3, align 8, !tbaa !26
  %31 = call zeroext i1 @RB_STATIC_SYM_P(i64 noundef %30) #28
  br i1 %31, label %32, label %34

32:                                               ; preds = %29
  %33 = load i64, ptr @rb_cSymbol, align 8, !tbaa !26
  store i64 %33, ptr %2, align 8
  br label %46

34:                                               ; preds = %29
  %35 = load i64, ptr %3, align 8, !tbaa !26
  %36 = call zeroext i1 @RB_FLONUM_P(i64 noundef %35) #28
  br i1 %36, label %37, label %39

37:                                               ; preds = %34
  %38 = load i64, ptr @rb_cFloat, align 8, !tbaa !26
  store i64 %38, ptr %2, align 8
  br label %46

39:                                               ; preds = %34
  br label %40

40:                                               ; preds = %39
  br label %41

41:                                               ; preds = %40
  br label %42

42:                                               ; preds = %41
  br label %43

43:                                               ; preds = %42
  br label %44

44:                                               ; preds = %43
  br label %45

45:                                               ; preds = %44
  unreachable

46:                                               ; preds = %37, %32, %27, %22, %17, %12, %6
  %47 = load i64, ptr %2, align 8
  ret i64 %47
}

; Function Attrs: inlinehint nounwind sspstrong willreturn memory(read) uwtable
define internal i64 @rb_intern_const(ptr noundef nonnull %0) #6 {
  %2 = alloca ptr, align 8
  %3 = alloca i64, align 8
  store ptr %0, ptr %2, align 8, !tbaa !29
  call void @llvm.lifetime.start.p0(i64 8, ptr %3) #24
  %4 = load ptr, ptr %2, align 8, !tbaa !29
  %5 = call i64 @strlen(ptr noundef %4) #26
  store i64 %5, ptr %3, align 8, !tbaa !26
  %6 = load ptr, ptr %2, align 8, !tbaa !29
  %7 = load i64, ptr %3, align 8, !tbaa !26
  %8 = call i64 @rb_intern2(ptr noundef %6, i64 noundef %7)
  call void @llvm.lifetime.end.p0(i64 8, ptr %3) #24
  ret i64 %8
}

; Function Attrs: nounwind sspstrong uwtable
define hidden void @InitVM_Random() #0 {
  %1 = alloca i64, align 8
  %2 = alloca i64, align 8
  %3 = alloca i64, align 8
  call void @llvm.lifetime.start.p0(i64 8, ptr %1) #24
  call void @llvm.lifetime.start.p0(i64 8, ptr %2) #24
  %4 = call i64 @rb_intern_const(ptr noundef @.str.5) #26
  store i64 %4, ptr %2, align 8, !tbaa !26
  call void @rb_define_global_function(ptr noundef @.str.6, ptr noundef @rb_f_srand, i32 noundef -1)
  call void @rb_define_global_function(ptr noundef @.str.7, ptr noundef @rb_f_rand, i32 noundef -1)
  %5 = load i64, ptr %2, align 8, !tbaa !26
  %6 = load i64, ptr @rb_cObject, align 8, !tbaa !26
  %7 = call i64 @rb_define_class_id(i64 noundef %5, i64 noundef %6)
  store i64 %7, ptr %1, align 8, !tbaa !26
  %8 = load i64, ptr %1, align 8, !tbaa !26
  call void @rb_undef_alloc_func(i64 noundef %8)
  %9 = load i64, ptr %1, align 8, !tbaa !26
  %10 = call i64 @rb_define_class(ptr noundef @.str.8, i64 noundef %9)
  store i64 %10, ptr @rb_cRandom, align 8, !tbaa !26
  %11 = load i64, ptr @rb_cRandom, align 8, !tbaa !26
  %12 = load i64, ptr %2, align 8, !tbaa !26
  %13 = load i64, ptr %1, align 8, !tbaa !26
  call void @rb_const_set(i64 noundef %11, i64 noundef %12, i64 noundef %13)
  %14 = load i64, ptr @rb_cRandom, align 8, !tbaa !26
  call void @rb_define_alloc_func(i64 noundef %14, ptr noundef @random_alloc)
  %15 = load i64, ptr %1, align 8, !tbaa !26
  call void @rb_define_method(i64 noundef %15, ptr noundef @.str.9, ptr noundef @random_init, i32 noundef -1)
  %16 = load i64, ptr %1, align 8, !tbaa !26
  call void @rb_define_method(i64 noundef %16, ptr noundef @.str.7, ptr noundef @random_rand, i32 noundef -1)
  %17 = load i64, ptr %1, align 8, !tbaa !26
  call void @rb_define_method(i64 noundef %17, ptr noundef @.str.10, ptr noundef @random_bytes, i32 noundef 1)
  %18 = load i64, ptr %1, align 8, !tbaa !26
  call void @rb_define_method(i64 noundef %18, ptr noundef @.str.11, ptr noundef @random_get_seed, i32 noundef 0)
  %19 = load i64, ptr @rb_cRandom, align 8, !tbaa !26
  call void @rb_define_method(i64 noundef %19, ptr noundef @.str.12, ptr noundef @rand_mt_copy, i32 noundef 1)
  %20 = load i64, ptr @rb_cRandom, align 8, !tbaa !26
  call void @rb_define_private_method(i64 noundef %20, ptr noundef @.str.13, ptr noundef @rand_mt_dump, i32 noundef 0)
  %21 = load i64, ptr @rb_cRandom, align 8, !tbaa !26
  call void @rb_define_private_method(i64 noundef %21, ptr noundef @.str.14, ptr noundef @rand_mt_load, i32 noundef 1)
  %22 = load i64, ptr @rb_cRandom, align 8, !tbaa !26
  call void @rb_define_private_method(i64 noundef %22, ptr noundef @.str.15, ptr noundef @rand_mt_state, i32 noundef 0)
  %23 = load i64, ptr @rb_cRandom, align 8, !tbaa !26
  call void @rb_define_private_method(i64 noundef %23, ptr noundef @.str.16, ptr noundef @rand_mt_left, i32 noundef 0)
  %24 = load i64, ptr @rb_cRandom, align 8, !tbaa !26
  call void @rb_define_method(i64 noundef %24, ptr noundef @.str.17, ptr noundef @rand_mt_equal, i32 noundef 1)
  %25 = load i64, ptr @rb_cRandom, align 8, !tbaa !26
  call void @rb_define_singleton_method(i64 noundef %25, ptr noundef @.str.6, ptr noundef @rb_f_srand, i32 noundef -1)
  %26 = load i64, ptr @rb_cRandom, align 8, !tbaa !26
  call void @rb_define_singleton_method(i64 noundef %26, ptr noundef @.str.7, ptr noundef @random_s_rand, i32 noundef -1)
  %27 = load i64, ptr @rb_cRandom, align 8, !tbaa !26
  call void @rb_define_singleton_method(i64 noundef %27, ptr noundef @.str.10, ptr noundef @random_s_bytes, i32 noundef 1)
  %28 = load i64, ptr @rb_cRandom, align 8, !tbaa !26
  call void @rb_define_singleton_method(i64 noundef %28, ptr noundef @.str.11, ptr noundef @random_s_seed, i32 noundef 0)
  %29 = load i64, ptr @rb_cRandom, align 8, !tbaa !26
  call void @rb_define_singleton_method(i64 noundef %29, ptr noundef @.str.18, ptr noundef @random_seed, i32 noundef 0)
  %30 = load i64, ptr @rb_cRandom, align 8, !tbaa !26
  call void @rb_define_singleton_method(i64 noundef %30, ptr noundef @.str.19, ptr noundef @random_raw_seed, i32 noundef 1)
  %31 = load i64, ptr @rb_cRandom, align 8, !tbaa !26
  %32 = call i64 @rb_class_of(i64 noundef %31) #26
  call void @rb_define_private_method(i64 noundef %32, ptr noundef @.str.15, ptr noundef @random_s_state, i32 noundef 0)
  %33 = load i64, ptr @rb_cRandom, align 8, !tbaa !26
  %34 = call i64 @rb_class_of(i64 noundef %33) #26
  call void @rb_define_private_method(i64 noundef %34, ptr noundef @.str.16, ptr noundef @random_s_left, i32 noundef 0)
  call void @llvm.lifetime.start.p0(i64 8, ptr %3) #24
  %35 = load i64, ptr @rb_cRandom, align 8, !tbaa !26
  %36 = call i64 @rb_define_module_under(i64 noundef %35, ptr noundef @.str.20)
  store i64 %36, ptr %3, align 8, !tbaa !26
  %37 = load i64, ptr %1, align 8, !tbaa !26
  %38 = load i64, ptr %3, align 8, !tbaa !26
  call void @rb_include_module(i64 noundef %37, i64 noundef %38)
  %39 = load i64, ptr %1, align 8, !tbaa !26
  %40 = load i64, ptr %3, align 8, !tbaa !26
  call void @rb_extend_object(i64 noundef %39, i64 noundef %40)
  %41 = load i64, ptr %3, align 8, !tbaa !26
  call void @rb_define_method(i64 noundef %41, ptr noundef @.str.21, ptr noundef @rand_random_number, i32 noundef -1)
  %42 = load i64, ptr %3, align 8, !tbaa !26
  call void @rb_define_method(i64 noundef %42, ptr noundef @.str.7, ptr noundef @rand_random_number, i32 noundef -1)
  call void @llvm.lifetime.end.p0(i64 8, ptr %3) #24
  %43 = call ptr @rb_ractor_local_storage_ptr_newkey(ptr noundef @default_rand_key_storage_type)
  store ptr %43, ptr @default_rand_key, align 8, !tbaa !7
  call void @llvm.lifetime.end.p0(i64 8, ptr %2) #24
  call void @llvm.lifetime.end.p0(i64 8, ptr %1) #24
  ret void
}