; Function Attrs: nounwind sspstrong uwtable
define hidden void @InitVM_Random() local_unnamed_addr #0 {
  %1 = tail call i64 @rb_intern2(ptr noundef nonnull @.str.5, i64 noundef 4) #23
  tail call void @rb_define_global_function(ptr noundef nonnull @.str.6, ptr noundef nonnull @rb_f_srand, i32 noundef -1) #23
  tail call void @rb_define_global_function(ptr noundef nonnull @.str.7, ptr noundef nonnull @rb_f_rand, i32 noundef -1) #23
  %2 = load i64, ptr @rb_cObject, align 8, !tbaa !43
  %3 = tail call i64 @rb_define_class_id(i64 noundef %1, i64 noundef %2) #23
  tail call void @rb_undef_alloc_func(i64 noundef %3) #23
  %4 = tail call i64 @rb_define_class(ptr noundef nonnull @.str.8, i64 noundef %3) #23
  store i64 %4, ptr @rb_cRandom, align 8, !tbaa !43
  tail call void @rb_const_set(i64 noundef %4, i64 noundef %1, i64 noundef %3) #23
  %5 = load i64, ptr @rb_cRandom, align 8, !tbaa !43
  tail call void @rb_define_alloc_func(i64 noundef %5, ptr noundef nonnull @random_alloc) #23
  tail call void @rb_define_method(i64 noundef %3, ptr noundef nonnull @.str.9, ptr noundef nonnull @random_init, i32 noundef -1) #23
  tail call void @rb_define_method(i64 noundef %3, ptr noundef nonnull @.str.7, ptr noundef nonnull @random_rand, i32 noundef -1) #23
  tail call void @rb_define_method(i64 noundef %3, ptr noundef nonnull @.str.10, ptr noundef nonnull @random_bytes, i32 noundef 1) #23
  tail call void @rb_define_method(i64 noundef %3, ptr noundef nonnull @.str.11, ptr noundef nonnull @random_get_seed, i32 noundef 0) #23
  %6 = load i64, ptr @rb_cRandom, align 8, !tbaa !43
  tail call void @rb_define_method(i64 noundef %6, ptr noundef nonnull @.str.12, ptr noundef nonnull @rand_mt_copy, i32 noundef 1) #23
  %7 = load i64, ptr @rb_cRandom, align 8, !tbaa !43
  tail call void @rb_define_private_method(i64 noundef %7, ptr noundef nonnull @.str.13, ptr noundef nonnull @rand_mt_dump, i32 noundef 0) #23
  %8 = load i64, ptr @rb_cRandom, align 8, !tbaa !43
  tail call void @rb_define_private_method(i64 noundef %8, ptr noundef nonnull @.str.14, ptr noundef nonnull @rand_mt_load, i32 noundef 1) #23
  %9 = load i64, ptr @rb_cRandom, align 8, !tbaa !43
  tail call void @rb_define_private_method(i64 noundef %9, ptr noundef nonnull @.str.15, ptr noundef nonnull @rand_mt_state, i32 noundef 0) #23
  %10 = load i64, ptr @rb_cRandom, align 8, !tbaa !43
  tail call void @rb_define_private_method(i64 noundef %10, ptr noundef nonnull @.str.16, ptr noundef nonnull @rand_mt_left, i32 noundef 0) #23
  %11 = load i64, ptr @rb_cRandom, align 8, !tbaa !43
  tail call void @rb_define_method(i64 noundef %11, ptr noundef nonnull @.str.17, ptr noundef nonnull @rand_mt_equal, i32 noundef 1) #23
  %12 = load i64, ptr @rb_cRandom, align 8, !tbaa !43
  tail call void @rb_define_singleton_method(i64 noundef %12, ptr noundef nonnull @.str.6, ptr noundef nonnull @rb_f_srand, i32 noundef -1) #23
  %13 = load i64, ptr @rb_cRandom, align 8, !tbaa !43
  tail call void @rb_define_singleton_method(i64 noundef %13, ptr noundef nonnull @.str.7, ptr noundef nonnull @random_s_rand, i32 noundef -1) #23
  %14 = load i64, ptr @rb_cRandom, align 8, !tbaa !43
  tail call void @rb_define_singleton_method(i64 noundef %14, ptr noundef nonnull @.str.10, ptr noundef nonnull @random_s_bytes, i32 noundef 1) #23
  %15 = load i64, ptr @rb_cRandom, align 8, !tbaa !43
  tail call void @rb_define_singleton_method(i64 noundef %15, ptr noundef nonnull @.str.11, ptr noundef nonnull @random_s_seed, i32 noundef 0) #23
  %16 = load i64, ptr @rb_cRandom, align 8, !tbaa !43
  tail call void @rb_define_singleton_method(i64 noundef %16, ptr noundef nonnull @.str.18, ptr noundef nonnull @random_seed, i32 noundef 0) #23
  %17 = load i64, ptr @rb_cRandom, align 8, !tbaa !43
  tail call void @rb_define_singleton_method(i64 noundef %17, ptr noundef nonnull @.str.19, ptr noundef nonnull @random_raw_seed, i32 noundef 1) #23
  %18 = load i64, ptr @rb_cRandom, align 8, !tbaa !43
  %19 = icmp eq i64 %18, 0
  %20 = and i64 %18, 7
  %21 = icmp ne i64 %20, 0
  %22 = or i1 %19, %21
  br i1 %22, label %26, label %23

23:                                               ; preds = %0
  %24 = inttoptr i64 %18 to ptr
  %25 = getelementptr inbounds nuw i8, ptr %24, i64 8
  br label %rb_class_of.exit

26:                                               ; preds = %0
  switch i64 %18, label %29 [
    i64 0, label %rb_class_of.exit
    i64 4, label %27
    i64 20, label %28
  ]

27:                                               ; preds = %26
  br label %rb_class_of.exit

28:                                               ; preds = %26
  br label %rb_class_of.exit

29:                                               ; preds = %26
  %30 = and i64 %18, 1
  %.not.i = icmp eq i64 %30, 0
  br i1 %.not.i, label %31, label %rb_class_of.exit

31:                                               ; preds = %29
  %32 = and i64 %18, 254
  %33 = icmp eq i64 %32, 12
  %spec.select.i = select i1 %33, ptr @rb_cSymbol, ptr @rb_cFloat
  br label %rb_class_of.exit

rb_class_of.exit:                                 ; preds = %23, %26, %27, %28, %29, %31
  %.0.in.i = phi ptr [ @rb_cNilClass, %27 ], [ @rb_cTrueClass, %28 ], [ %25, %23 ], [ @rb_cFalseClass, %26 ], [ @rb_cInteger, %29 ], [ %spec.select.i, %31 ]
  %.0.i = load i64, ptr %.0.in.i, align 8, !tbaa !43
  tail call void @rb_define_private_method(i64 noundef %.0.i, ptr noundef nonnull @.str.15, ptr noundef nonnull @random_s_state, i32 noundef 0) #23
  %34 = load i64, ptr @rb_cRandom, align 8, !tbaa !43
  %35 = icmp eq i64 %34, 0
  %36 = and i64 %34, 7
  %37 = icmp ne i64 %36, 0
  %38 = or i1 %35, %37
  br i1 %38, label %42, label %39

39:                                               ; preds = %rb_class_of.exit
  %40 = inttoptr i64 %34 to ptr
  %41 = getelementptr inbounds nuw i8, ptr %40, i64 8
  br label %rb_class_of.exit19

42:                                               ; preds = %rb_class_of.exit
  switch i64 %34, label %45 [
    i64 0, label %rb_class_of.exit19
    i64 4, label %43
    i64 20, label %44
  ]

43:                                               ; preds = %42
  br label %rb_class_of.exit19

44:                                               ; preds = %42
  br label %rb_class_of.exit19

45:                                               ; preds = %42
  %46 = and i64 %34, 1
  %.not.i17 = icmp eq i64 %46, 0
  br i1 %.not.i17, label %47, label %rb_class_of.exit19

47:                                               ; preds = %45
  %48 = and i64 %34, 254
  %49 = icmp eq i64 %48, 12
  %spec.select.i18 = select i1 %49, ptr @rb_cSymbol, ptr @rb_cFloat
  br label %rb_class_of.exit19

rb_class_of.exit19:                               ; preds = %39, %42, %43, %44, %45, %47
  %.0.in.i15 = phi ptr [ @rb_cNilClass, %43 ], [ @rb_cTrueClass, %44 ], [ %41, %39 ], [ @rb_cFalseClass, %42 ], [ @rb_cInteger, %45 ], [ %spec.select.i18, %47 ]
  %.0.i16 = load i64, ptr %.0.in.i15, align 8, !tbaa !43
  tail call void @rb_define_private_method(i64 noundef %.0.i16, ptr noundef nonnull @.str.16, ptr noundef nonnull @random_s_left, i32 noundef 0) #23
  %50 = load i64, ptr @rb_cRandom, align 8, !tbaa !43
  %51 = tail call i64 @rb_define_module_under(i64 noundef %50, ptr noundef nonnull @.str.20) #23
  tail call void @rb_include_module(i64 noundef %3, i64 noundef %51) #23
  tail call void @rb_extend_object(i64 noundef %3, i64 noundef %51) #23
  tail call void @rb_define_method(i64 noundef %51, ptr noundef nonnull @.str.21, ptr noundef nonnull @rand_random_number, i32 noundef -1) #23
  tail call void @rb_define_method(i64 noundef %51, ptr noundef nonnull @.str.7, ptr noundef nonnull @rand_random_number, i32 noundef -1) #23
  %52 = tail call ptr @rb_ractor_local_storage_ptr_newkey(ptr noundef nonnull @default_rand_key_storage_type) #23
  store ptr %52, ptr @default_rand_key, align 8, !tbaa !7
  ret void
}